target datalayout = "e-m:e-p270:32:32-p271:32:32-p272:64:64-i64:64-i128:128-f80:128-n8:16:32:64-S128"
target triple = "x86_64-pc-linux-gnu"

%struct.strbuf = type { i64, i64, ptr }
%struct.note_data = type { i32, i32, ptr, %struct.strbuf, ptr, i64, i64 }
%struct.option = type { i32, i32, ptr, ptr, ptr, ptr, i32, ptr, i64, ptr, i64, ptr }
%struct.note_msg = type { i32, %struct.strbuf }

@.str.44 = private unnamed_addr constant [16 x i8] c"builtin/notes.c\00", align 1
@.str.49 = private unnamed_addr constant [41 x i8] c"option callback does not expect negation\00", align 1
@.str.50 = private unnamed_addr constant [33 x i8] c"negative growth in ALLOC_GROW_BY\00", align 1
@.str.51 = private unnamed_addr constant [27 x i8] c"size_t overflow: %lu * %lu\00", align 1
@.str.52 = private unnamed_addr constant [2 x i8] c"-\00", align 1
@.str.53 = private unnamed_addr constant [17 x i8] c"cannot read '%s'\00", align 1
@.str.54 = private unnamed_addr constant [28 x i8] c"could not open or read '%s'\00", align 1

; Function Attrs: inlinehint nounwind uwtable
define internal i64 @st_mult(i64 noundef %0, i64 noundef %1) #3 {
  %3 = alloca i64, align 8
  %4 = alloca i64, align 8
  store i64 %0, ptr %3, align 8, !tbaa !42
  store i64 %1, ptr %4, align 8, !tbaa !42
  %5 = load i64, ptr %3, align 8, !tbaa !42
  %6 = icmp ne i64 %5, 0
  br i1 %6, label %7, label %15

7:                                                ; preds = %2
  %8 = load i64, ptr %4, align 8, !tbaa !42
  %9 = load i64, ptr %3, align 8, !tbaa !42
  %10 = udiv i64 -1, %9
  %11 = icmp ugt i64 %8, %10
  br i1 %11, label %12, label %15

12:                                               ; preds = %7
  %13 = load i64, ptr %3, align 8, !tbaa !42
  %14 = load i64, ptr %4, align 8, !tbaa !42
  call void (ptr, ...) @die(ptr noundef @.str.51, i64 noundef %13, i64 noundef %14) #12
  unreachable

15:                                               ; preds = %7, %2
  %16 = load i64, ptr %3, align 8, !tbaa !42
  %17 = load i64, ptr %4, align 8, !tbaa !42
  %18 = mul i64 %16, %17
  ret i64 %18
}

; Function Attrs: nounwind uwtable
define internal i32 @parse_file_arg(ptr noundef %0, ptr noundef %1, i32 noundef %2) #0 {
  %4 = alloca ptr, align 8
  %5 = alloca ptr, align 8
  %6 = alloca i32, align 4
  %7 = alloca ptr, align 8
  %8 = alloca ptr, align 8
  %9 = alloca i64, align 8
  store ptr %0, ptr %4, align 8, !tbaa !66
  store ptr %1, ptr %5, align 8, !tbaa !11
  store i32 %2, ptr %6, align 4, !tbaa !4
  call void @llvm.lifetime.start.p0(i64 8, ptr %7) #11
  %10 = load ptr, ptr %4, align 8, !tbaa !66
  %11 = getelementptr inbounds nuw %struct.option, ptr %10, i32 0, i32 3
  %12 = load ptr, ptr %11, align 8, !tbaa !21
  store ptr %12, ptr %7, align 8, !tbaa !68
  call void @llvm.lifetime.start.p0(i64 8, ptr %8) #11
  %13 = call ptr @xmalloc(i64 noundef 32)
  store ptr %13, ptr %8, align 8, !tbaa !70
  br label %14

14:                                               ; preds = %3
  %15 = load i32, ptr %6, align 4, !tbaa !4
  %16 = icmp ne i32 %15, 0
  br i1 %16, label %17, label %18

17:                                               ; preds = %14
  call void (ptr, i32, ptr, ...) @BUG_fl(ptr noundef @.str.44, i32 noundef 292, ptr noundef @.str.49) #12
  unreachable

18:                                               ; preds = %14
  br label %19

19:                                               ; preds = %18
  br label %20

20:                                               ; preds = %19
  %21 = load ptr, ptr %8, align 8, !tbaa !70
  %22 = getelementptr inbounds nuw %struct.note_msg, ptr %21, i32 0, i32 1
  call void @strbuf_init(ptr noundef %22, i64 noundef 0)
  %23 = load ptr, ptr %5, align 8, !tbaa !11
  %24 = call i32 @strcmp(ptr noundef %23, ptr noundef @.str.52) #13
  %25 = icmp ne i32 %24, 0
  br i1 %25, label %35, label %26

26:                                               ; preds = %20
  %27 = load ptr, ptr %8, align 8, !tbaa !70
  %28 = getelementptr inbounds nuw %struct.note_msg, ptr %27, i32 0, i32 1
  %29 = call i64 @strbuf_read(ptr noundef %28, i32 noundef 0, i64 noundef 1024)
  %30 = icmp slt i64 %29, 0
  br i1 %30, label %31, label %34

31:                                               ; preds = %26
  %32 = call ptr @_(ptr noundef @.str.53)
  %33 = load ptr, ptr %5, align 8, !tbaa !11
  call void (ptr, ...) @die_errno(ptr noundef %32, ptr noundef %33) #12
  unreachable

34:                                               ; preds = %26
  br label %45

35:                                               ; preds = %20
  %36 = load ptr, ptr %8, align 8, !tbaa !70
  %37 = getelementptr inbounds nuw %struct.note_msg, ptr %36, i32 0, i32 1
  %38 = load ptr, ptr %5, align 8, !tbaa !11
  %39 = call i64 @strbuf_read_file(ptr noundef %37, ptr noundef %38, i64 noundef 1024)
  %40 = icmp slt i64 %39, 0
  br i1 %40, label %41, label %44

41:                                               ; preds = %35
  %42 = call ptr @_(ptr noundef @.str.54)
  %43 = load ptr, ptr %5, align 8, !tbaa !11
  call void (ptr, ...) @die_errno(ptr noundef %42, ptr noundef %43) #12
  unreachable

44:                                               ; preds = %35
  br label %45

45:                                               ; preds = %44, %34
  br label %46

46:                                               ; preds = %45
  call void @llvm.lifetime.start.p0(i64 8, ptr %9) #11
  %47 = load ptr, ptr %7, align 8, !tbaa !68
  %48 = getelementptr inbounds nuw %struct.note_data, ptr %47, i32 0, i32 5
  %49 = load i64, ptr %48, align 8, !tbaa !36
  %50 = add i64 %49, 1
  store i64 %50, ptr %9, align 8, !tbaa !42
  %51 = load i64, ptr %9, align 8, !tbaa !42
  %52 = load ptr, ptr %7, align 8, !tbaa !68
  %53 = getelementptr inbounds nuw %struct.note_data, ptr %52, i32 0, i32 5
  %54 = load i64, ptr %53, align 8, !tbaa !36
  %55 = icmp ult i64 %51, %54
  br i1 %55, label %56, label %57

56:                                               ; preds = %46
  call void (ptr, i32, ptr, ...) @BUG_fl(ptr noundef @.str.44, i32 noundef 301, ptr noundef @.str.50) #12
  unreachable

57:                                               ; preds = %46
  br label %58

58:                                               ; preds = %57
  %59 = load i64, ptr %9, align 8, !tbaa !42
  %60 = load ptr, ptr %7, align 8, !tbaa !68
  %61 = getelementptr inbounds nuw %struct.note_data, ptr %60, i32 0, i32 6
  %62 = load i64, ptr %61, align 8, !tbaa !72
  %63 = icmp ugt i64 %59, %62
  br i1 %63, label %64, label %97

64:                                               ; preds = %58
  %65 = load ptr, ptr %7, align 8, !tbaa !68
  %66 = getelementptr inbounds nuw %struct.note_data, ptr %65, i32 0, i32 6
  %67 = load i64, ptr %66, align 8, !tbaa !72
  %68 = add i64 %67, 16
  %69 = mul i64 %68, 3
  %70 = udiv i64 %69, 2
  %71 = load i64, ptr %9, align 8, !tbaa !42
  %72 = icmp ult i64 %70, %71
  br i1 %72, label %73, label %77

73:                                               ; preds = %64
  %74 = load i64, ptr %9, align 8, !tbaa !42
  %75 = load ptr, ptr %7, align 8, !tbaa !68
  %76 = getelementptr inbounds nuw %struct.note_data, ptr %75, i32 0, i32 6
  store i64 %74, ptr %76, align 8, !tbaa !72
  br label %86

77:                                               ; preds = %64
  %78 = load ptr, ptr %7, align 8, !tbaa !68
  %79 = getelementptr inbounds nuw %struct.note_data, ptr %78, i32 0, i32 6
  %80 = load i64, ptr %79, align 8, !tbaa !72
  %81 = add i64 %80, 16
  %82 = mul i64 %81, 3
  %83 = udiv i64 %82, 2
  %84 = load ptr, ptr %7, align 8, !tbaa !68
  %85 = getelementptr inbounds nuw %struct.note_data, ptr %84, i32 0, i32 6
  store i64 %83, ptr %85, align 8, !tbaa !72
  br label %86

86:                                               ; preds = %77, %73
  %87 = load ptr, ptr %7, align 8, !tbaa !68
  %88 = getelementptr inbounds nuw %struct.note_data, ptr %87, i32 0, i32 4
  %89 = load ptr, ptr %88, align 8, !tbaa !73
  %90 = load ptr, ptr %7, align 8, !tbaa !68
  %91 = getelementptr inbounds nuw %struct.note_data, ptr %90, i32 0, i32 6
  %92 = load i64, ptr %91, align 8, !tbaa !72
  %93 = call i64 @st_mult(i64 noundef 8, i64 noundef %92)
  %94 = call ptr @xrealloc(ptr noundef %89, i64 noundef %93)
  %95 = load ptr, ptr %7, align 8, !tbaa !68
  %96 = getelementptr inbounds nuw %struct.note_data, ptr %95, i32 0, i32 4
  store ptr %94, ptr %96, align 8, !tbaa !73
  br label %97

97:                                               ; preds = %86, %58
  br label %98

98:                                               ; preds = %97
  br label %99

99:                                               ; preds = %98
  %100 = load ptr, ptr %7, align 8, !tbaa !68
  %101 = getelementptr inbounds nuw %struct.note_data, ptr %100, i32 0, i32 4
  %102 = load ptr, ptr %101, align 8, !tbaa !73
  %103 = load ptr, ptr %7, align 8, !tbaa !68
  %104 = getelementptr inbounds nuw %struct.note_data, ptr %103, i32 0, i32 5
  %105 = load i64, ptr %104, align 8, !tbaa !36
  %106 = getelementptr inbounds nuw ptr, ptr %102, i64 %105
  call void @llvm.memset.p0.i64(ptr align 8 %106, i8 0, i64 8, i1 false)
  %107 = load i64, ptr %9, align 8, !tbaa !42
  %108 = load ptr, ptr %7, align 8, !tbaa !68
  %109 = getelementptr inbounds nuw %struct.note_data, ptr %108, i32 0, i32 5
  store i64 %107, ptr %109, align 8, !tbaa !36
  call void @llvm.lifetime.end.p0(i64 8, ptr %9) #11
  br label %110

110:                                              ; preds = %99
  br label %111

111:                                              ; preds = %110
  %112 = load ptr, ptr %8, align 8, !tbaa !70
  %113 = load ptr, ptr %7, align 8, !tbaa !68
  %114 = getelementptr inbounds nuw %struct.note_data, ptr %113, i32 0, i32 4
  %115 = load ptr, ptr %114, align 8, !tbaa !73
  %116 = load ptr, ptr %7, align 8, !tbaa !68
  %117 = getelementptr inbounds nuw %struct.note_data, ptr %116, i32 0, i32 5
  %118 = load i64, ptr %117, align 8, !tbaa !36
  %119 = sub i64 %118, 1
  %120 = getelementptr inbounds nuw ptr, ptr %115, i64 %119
  store ptr %112, ptr %120, align 8, !tbaa !70
  %121 = load ptr, ptr %8, align 8, !tbaa !70
  %122 = getelementptr inbounds nuw %struct.note_msg, ptr %121, i32 0, i32 0
  store i32 1, ptr %122, align 8, !tbaa !74
  call void @llvm.lifetime.end.p0(i64 8, ptr %8) #11
  call void @llvm.lifetime.end.p0(i64 8, ptr %7) #11
  ret i32 0
}