; Function Attrs: nounwind uwtable
define internal noundef i32 @parse_file_arg(ptr noundef readonly captures(none) %0, ptr noundef %1, i32 noundef %2) #0 {
  %4 = getelementptr inbounds nuw i8, ptr %0, i64 16
  %5 = load ptr, ptr %4, align 8, !tbaa !16
  %6 = tail call ptr @xmalloc(i64 noundef 32) #16
  %.not = icmp eq i32 %2, 0
  br i1 %.not, label %sub_0, label %7

7:                                                ; preds = %3
  tail call void (ptr, i32, ptr, ...) @BUG_fl(ptr noundef nonnull @.str.44, i32 noundef 292, ptr noundef nonnull @.str.49) #17
  unreachable

sub_0:                                            ; preds = %3
  %8 = getelementptr inbounds nuw i8, ptr %6, i64 8
  tail call void @strbuf_init(ptr noundef nonnull %8, i64 noundef 0) #16
  %9 = load i8, ptr %1, align 1
  %.not34 = icmp eq i8 %9, 45
  br i1 %.not34, label %.tail, label %.tail.thread

.tail:                                            ; preds = %sub_0
  %10 = getelementptr inbounds nuw i8, ptr %1, i64 1
  %11 = load i8, ptr %10, align 1
  %12 = icmp eq i8 %11, 0
  br i1 %12, label %13, label %.tail.thread

13:                                               ; preds = %.tail
  %14 = tail call i64 @strbuf_read(ptr noundef nonnull %8, i32 noundef 0, i64 noundef 1024) #16
  %15 = icmp slt i64 %14, 0
  br i1 %15, label %16, label %22

16:                                               ; preds = %13
  %17 = tail call fastcc ptr @_(ptr noundef nonnull @.str.53)
  tail call void (ptr, ...) @die_errno(ptr noundef %17, ptr noundef nonnull %1) #17
  unreachable

.tail.thread:                                     ; preds = %sub_0, %.tail
  %18 = tail call i64 @strbuf_read_file(ptr noundef nonnull %8, ptr noundef nonnull %1, i64 noundef 1024) #16
  %19 = icmp slt i64 %18, 0
  br i1 %19, label %20, label %22

20:                                               ; preds = %.tail.thread
  %21 = tail call fastcc ptr @_(ptr noundef nonnull @.str.54)
  tail call void (ptr, ...) @die_errno(ptr noundef %21, ptr noundef nonnull %1) #17
  unreachable

22:                                               ; preds = %13, %.tail.thread
  %23 = getelementptr inbounds nuw i8, ptr %5, i64 48
  %24 = load i64, ptr %23, align 8, !tbaa !28
  %25 = add i64 %24, 1
  %26 = icmp eq i64 %24, -1
  br i1 %26, label %27, label %28

27:                                               ; preds = %22
  tail call void (ptr, i32, ptr, ...) @BUG_fl(ptr noundef nonnull @.str.44, i32 noundef 301, ptr noundef nonnull @.str.50) #17
  unreachable

28:                                               ; preds = %22
  %29 = getelementptr inbounds nuw i8, ptr %5, i64 56
  %30 = load i64, ptr %29, align 8, !tbaa !79
  %31 = icmp ugt i64 %25, %30
  br i1 %31, label %32, label %._crit_edge

._crit_edge:                                      ; preds = %28
  %.phi.trans.insert = getelementptr inbounds nuw i8, ptr %5, i64 40
  %.pre = load ptr, ptr %.phi.trans.insert, align 8, !tbaa !80
  br label %42

32:                                               ; preds = %28
  %33 = mul i64 %30, 3
  %34 = add i64 %33, 48
  %35 = lshr i64 %34, 1
  %. = tail call i64 @llvm.umax.i64(i64 %35, i64 %25)
  store i64 %., ptr %29, align 8, !tbaa !79
  %36 = icmp ugt i64 %., 2305843009213693951
  br i1 %36, label %37, label %st_mult.exit

37:                                               ; preds = %32
  tail call void (ptr, ...) @die(ptr noundef nonnull @.str.51, i64 noundef 8, i64 noundef %.) #17
  unreachable

st_mult.exit:                                     ; preds = %32
  %38 = getelementptr inbounds nuw i8, ptr %5, i64 40
  %39 = load ptr, ptr %38, align 8, !tbaa !80
  %40 = shl nuw i64 %., 3
  %41 = tail call ptr @xrealloc(ptr noundef %39, i64 noundef %40) #16
  store ptr %41, ptr %38, align 8, !tbaa !80
  %.pre35 = load i64, ptr %23, align 8, !tbaa !28
  br label %42

42:                                               ; preds = %._crit_edge, %st_mult.exit
  %43 = phi i64 [ %24, %._crit_edge ], [ %.pre35, %st_mult.exit ]
  %44 = phi ptr [ %.pre, %._crit_edge ], [ %41, %st_mult.exit ]
  %45 = getelementptr inbounds nuw i8, ptr %5, i64 40
  %46 = getelementptr inbounds nuw ptr, ptr %44, i64 %43
  store i64 0, ptr %46, align 8
  store i64 %25, ptr %23, align 8, !tbaa !28
  %47 = load ptr, ptr %45, align 8, !tbaa !80
  %48 = getelementptr inbounds nuw ptr, ptr %47, i64 %24
  store ptr %6, ptr %48, align 8, !tbaa !81
  store i32 1, ptr %6, align 8, !tbaa !83
  ret i32 0
}